target datalayout = "e-m:e-p270:32:32-p271:32:32-p272:64:64-i64:64-i128:128-f80:128-n8:16:32:64-S128"
target triple = "x86_64-unknown-linux-gnu"

%"struct.std::__detail::_Hash_node_base" = type { ptr }
%"struct.std::__detail::_Prime_rehash_policy" = type { float, i64 }
%"class.std::__cxx11::basic_string" = type { %"struct.std::__cxx11::basic_string<char>::_Alloc_hider", i64, %union.anon }
%"struct.std::__cxx11::basic_string<char>::_Alloc_hider" = type { ptr }
%union.anon = type { i64, [8 x i8] }
%"class.std::unordered_map.46" = type { %"class.std::_Hashtable.47" }
%"class.std::_Hashtable.47" = type { ptr, i64, %"struct.std::__detail::_Hash_node_base", i64, %"struct.std::__detail::_Prime_rehash_policy", ptr }
%"struct.facebook::hermes::tracing::TraceInterpreter::Call" = type { %"class.std::vector.175", %"class.std::unordered_map.46" }
%"class.std::vector.175" = type { %"struct.std::_Vector_base.176" }
%"struct.std::_Vector_base.176" = type { %"struct.std::_Vector_base<facebook::hermes::tracing::TraceInterpreter::Call::Piece, std::allocator<facebook::hermes::tracing::TraceInterpreter::Call::Piece>>::_Vector_impl" }
%"struct.std::_Vector_base<facebook::hermes::tracing::TraceInterpreter::Call::Piece, std::allocator<facebook::hermes::tracing::TraceInterpreter::Call::Piece>>::_Vector_impl" = type { %"struct.std::_Vector_base<facebook::hermes::tracing::TraceInterpreter::Call::Piece, std::allocator<facebook::hermes::tracing::TraceInterpreter::Call::Piece>>::_Vector_impl_data" }
%"struct.std::_Vector_base<facebook::hermes::tracing::TraceInterpreter::Call::Piece, std::allocator<facebook::hermes::tracing::TraceInterpreter::Call::Piece>>::_Vector_impl_data" = type { ptr, ptr, ptr }
%"class.std::vector.170" = type { %"struct.std::_Vector_base.171" }
%"struct.std::_Vector_base.171" = type { %"struct.std::_Vector_base<facebook::hermes::tracing::TraceInterpreter::Call, std::allocator<facebook::hermes::tracing::TraceInterpreter::Call>>::_Vector_impl" }
%"struct.std::_Vector_base<facebook::hermes::tracing::TraceInterpreter::Call, std::allocator<facebook::hermes::tracing::TraceInterpreter::Call>>::_Vector_impl" = type { %"struct.std::_Vector_base<facebook::hermes::tracing::TraceInterpreter::Call, std::allocator<facebook::hermes::tracing::TraceInterpreter::Call>>::_Vector_impl_data" }
%"struct.std::_Vector_base<facebook::hermes::tracing::TraceInterpreter::Call, std::allocator<facebook::hermes::tracing::TraceInterpreter::Call>>::_Vector_impl_data" = type { ptr, ptr, ptr }
%"struct.facebook::hermes::tracing::TraceInterpreter::HostObjectInfo" = type { %"class.std::vector.170", %"class.std::vector.188" }
%"class.std::vector.188" = type { %"struct.std::_Vector_base.189" }
%"struct.std::_Vector_base.189" = type { %"struct.std::_Vector_base<std::vector<std::__cxx11::basic_string<char>>, std::allocator<std::vector<std::__cxx11::basic_string<char>>>>::_Vector_impl" }
%"struct.std::_Vector_base<std::vector<std::__cxx11::basic_string<char>>, std::allocator<std::vector<std::__cxx11::basic_string<char>>>>::_Vector_impl" = type { %"struct.std::_Vector_base<std::vector<std::__cxx11::basic_string<char>>, std::allocator<std::vector<std::__cxx11::basic_string<char>>>>::_Vector_impl_data" }
%"struct.std::_Vector_base<std::vector<std::__cxx11::basic_string<char>>, std::allocator<std::vector<std::__cxx11::basic_string<char>>>>::_Vector_impl_data" = type { ptr, ptr, ptr }
%"class.facebook::jsi::Value" = type { i32, %"union.facebook::jsi::Value::Data" }
%"union.facebook::jsi::Value::Data" = type { double }
%"class.hermes::OptValue" = type <{ i64, i8, [7 x i8] }>
%struct.FakeHostObject = type { %"class.facebook::jsi::HostObject", ptr, ptr, i64, i64 }
%"class.facebook::jsi::HostObject" = type { ptr }

@_ZTISt9exception = external constant ptr
@.str.31 = private unnamed_addr constant [74 x i8] c"vector::_M_range_check: __n (which is %zu) >= this->size() (which is %zu)\00", align 1

; Function Attrs: mustprogress nounwind uwtable
define linkonce_odr void @_ZN8facebook3jsi5Value4DataC2Ev(ptr noundef nonnull align 8 dereferenceable(8) %this) unnamed_addr #5 comdat align 2 {
entry:
  %this.addr = alloca ptr, align 8
  store ptr %this, ptr %this.addr, align 8
  ret void
}

; Function Attrs: mustprogress uwtable
define linkonce_odr void @_ZN8facebook3jsi5ValueC2ENS1_9ValueKindE(ptr noundef nonnull align 8 dereferenceable(16) %this, i32 noundef %kind) unnamed_addr #4 comdat align 2 {
entry:
  %this.addr = alloca ptr, align 8
  %kind.addr = alloca i32, align 4
  store ptr %this, ptr %this.addr, align 8
  store i32 %kind, ptr %kind.addr, align 4
  %this1 = load ptr, ptr %this.addr, align 8
  %kind_ = getelementptr inbounds %"class.facebook::jsi::Value", ptr %this1, i32 0, i32 0
  %0 = load i32, ptr %kind.addr, align 4
  store i32 %0, ptr %kind_, align 8
  %data_ = getelementptr inbounds %"class.facebook::jsi::Value", ptr %this1, i32 0, i32 1
  call void @_ZN8facebook3jsi5Value4DataC2Ev(ptr noundef nonnull align 8 dereferenceable(8) %data_)
  ret void
}

; Function Attrs: mustprogress nounwind uwtable
define linkonce_odr hidden noundef i64 @_ZNKSt6vectorIN8facebook6hermes7tracing16TraceInterpreter4CallESaIS4_EE4sizeEv(ptr noundef nonnull align 8 dereferenceable(24) %this) #5 comdat align 2 {
entry:
  %this.addr = alloca ptr, align 8
  store ptr %this, ptr %this.addr, align 8
  %this1 = load ptr, ptr %this.addr, align 8
  %_M_impl = getelementptr inbounds %"struct.std::_Vector_base.171", ptr %this1, i32 0, i32 0
  %_M_finish = getelementptr inbounds %"struct.std::_Vector_base<facebook::hermes::tracing::TraceInterpreter::Call, std::allocator<facebook::hermes::tracing::TraceInterpreter::Call>>::_Vector_impl_data", ptr %_M_impl, i32 0, i32 1
  %0 = load ptr, ptr %_M_finish, align 8
  %_M_impl2 = getelementptr inbounds %"struct.std::_Vector_base.171", ptr %this1, i32 0, i32 0
  %_M_start = getelementptr inbounds %"struct.std::_Vector_base<facebook::hermes::tracing::TraceInterpreter::Call, std::allocator<facebook::hermes::tracing::TraceInterpreter::Call>>::_Vector_impl_data", ptr %_M_impl2, i32 0, i32 0
  %1 = load ptr, ptr %_M_start, align 8
  %sub.ptr.lhs.cast = ptrtoint ptr %0 to i64
  %sub.ptr.rhs.cast = ptrtoint ptr %1 to i64
  %sub.ptr.sub = sub i64 %sub.ptr.lhs.cast, %sub.ptr.rhs.cast
  %sub.ptr.div = sdiv exact i64 %sub.ptr.sub, 80
  ret i64 %sub.ptr.div
}

; Function Attrs: mustprogress uwtable
define linkonce_odr void @_ZN8facebook3jsi5ValueC2Ev(ptr noundef nonnull align 8 dereferenceable(16) %this) unnamed_addr #4 comdat align 2 {
entry:
  %this.addr = alloca ptr, align 8
  store ptr %this, ptr %this.addr, align 8
  %this1 = load ptr, ptr %this.addr, align 8
  call void @_ZN8facebook3jsi5ValueC2ENS1_9ValueKindE(ptr noundef nonnull align 8 dereferenceable(16) %this1, i32 noundef 0)
  ret void
}

; Function Attrs: mustprogress nounwind uwtable
define linkonce_odr hidden noundef nonnull align 8 dereferenceable(80) ptr @_ZNKSt6vectorIN8facebook6hermes7tracing16TraceInterpreter4CallESaIS4_EEixEm(ptr noundef nonnull align 8 dereferenceable(24) %this, i64 noundef %__n) #5 comdat align 2 {
entry:
  %this.addr = alloca ptr, align 8
  %__n.addr = alloca i64, align 8
  store ptr %this, ptr %this.addr, align 8
  store i64 %__n, ptr %__n.addr, align 8
  %this1 = load ptr, ptr %this.addr, align 8
  %_M_impl = getelementptr inbounds %"struct.std::_Vector_base.171", ptr %this1, i32 0, i32 0
  %_M_start = getelementptr inbounds %"struct.std::_Vector_base<facebook::hermes::tracing::TraceInterpreter::Call, std::allocator<facebook::hermes::tracing::TraceInterpreter::Call>>::_Vector_impl_data", ptr %_M_impl, i32 0, i32 0
  %0 = load ptr, ptr %_M_start, align 8
  %1 = load i64, ptr %__n.addr, align 8
  %add.ptr = getelementptr inbounds %"struct.facebook::hermes::tracing::TraceInterpreter::Call", ptr %0, i64 %1
  ret ptr %add.ptr
}

; Function Attrs: mustprogress uwtable
define linkonce_odr hidden void @_ZNKSt6vectorIN8facebook6hermes7tracing16TraceInterpreter4CallESaIS4_EE14_M_range_checkEm(ptr noundef nonnull align 8 dereferenceable(24) %this, i64 noundef %__n) #4 comdat align 2 {
entry:
  %this.addr = alloca ptr, align 8
  %__n.addr = alloca i64, align 8
  store ptr %this, ptr %this.addr, align 8
  store i64 %__n, ptr %__n.addr, align 8
  %this1 = load ptr, ptr %this.addr, align 8
  %0 = load i64, ptr %__n.addr, align 8
  %call = call noundef i64 @_ZNKSt6vectorIN8facebook6hermes7tracing16TraceInterpreter4CallESaIS4_EE4sizeEv(ptr noundef nonnull align 8 dereferenceable(24) %this1) #3
  %cmp = icmp uge i64 %0, %call
  br i1 %cmp, label %if.then, label %if.end

if.then:                                          ; preds = %entry
  %1 = load i64, ptr %__n.addr, align 8
  %call2 = call noundef i64 @_ZNKSt6vectorIN8facebook6hermes7tracing16TraceInterpreter4CallESaIS4_EE4sizeEv(ptr noundef nonnull align 8 dereferenceable(24) %this1) #3
  call void (ptr, ...) @_ZSt24__throw_out_of_range_fmtPKcz(ptr noundef @.str.31, i64 noundef %1, i64 noundef %call2) #20
  unreachable

if.end:                                           ; preds = %entry
  ret void
}

; Function Attrs: mustprogress nounwind uwtable
define linkonce_odr hidden void @_ZN6hermes8OptValueImEC2EN4llvh8NoneTypeE(ptr noundef nonnull align 8 dereferenceable(9) %this, i32 noundef %0) unnamed_addr #5 comdat align 2 {
entry:
  %this.addr = alloca ptr, align 8
  %.addr = alloca i32, align 4
  store ptr %this, ptr %this.addr, align 8
  store i32 %0, ptr %.addr, align 4
  %this1 = load ptr, ptr %this.addr, align 8
  %value_ = getelementptr inbounds %"class.hermes::OptValue", ptr %this1, i32 0, i32 0
  store i64 0, ptr %value_, align 8
  %hasValue_ = getelementptr inbounds %"class.hermes::OptValue", ptr %this1, i32 0, i32 1
  store i8 0, ptr %hasValue_, align 8
  ret void
}

; Function Attrs: mustprogress uwtable
define linkonce_odr void @_ZN8facebook3jsi5Value9undefinedEv(ptr noalias sret(%"class.facebook::jsi::Value") align 8 %agg.result) #4 comdat align 2 {
entry:
  %result.ptr = alloca ptr, align 8
  store ptr %agg.result, ptr %result.ptr, align 8
  call void @_ZN8facebook3jsi5ValueC2Ev(ptr noundef nonnull align 8 dereferenceable(16) %agg.result)
  ret void
}

; Function Attrs: mustprogress uwtable
define linkonce_odr hidden noundef nonnull align 8 dereferenceable(80) ptr @_ZNKSt6vectorIN8facebook6hermes7tracing16TraceInterpreter4CallESaIS4_EE2atEm(ptr noundef nonnull align 8 dereferenceable(24) %this, i64 noundef %__n) #4 comdat align 2 {
entry:
  %this.addr = alloca ptr, align 8
  %__n.addr = alloca i64, align 8
  store ptr %this, ptr %this.addr, align 8
  store i64 %__n, ptr %__n.addr, align 8
  %this1 = load ptr, ptr %this.addr, align 8
  %0 = load i64, ptr %__n.addr, align 8
  call void @_ZNKSt6vectorIN8facebook6hermes7tracing16TraceInterpreter4CallESaIS4_EE14_M_range_checkEm(ptr noundef nonnull align 8 dereferenceable(24) %this1, i64 noundef %0)
  %1 = load i64, ptr %__n.addr, align 8
  %call = call noundef nonnull align 8 dereferenceable(80) ptr @_ZNKSt6vectorIN8facebook6hermes7tracing16TraceInterpreter4CallESaIS4_EEixEm(ptr noundef nonnull align 8 dereferenceable(24) %this1, i64 noundef %1) #3
  ret ptr %call
}

; Function Attrs: mustprogress uwtable
define linkonce_odr void @_ZNK8facebook3jsi10PropNameID4utf8B5cxx11ERNS0_7RuntimeE(ptr noalias sret(%"class.std::__cxx11::basic_string") align 8 %agg.result, ptr noundef nonnull align 8 dereferenceable(8) %this, ptr noundef nonnull align 8 dereferenceable(8) %runtime) #4 comdat align 2 {
entry:
  %result.ptr = alloca ptr, align 8
  %this.addr = alloca ptr, align 8
  %runtime.addr = alloca ptr, align 8
  store ptr %agg.result, ptr %result.ptr, align 8
  store ptr %this, ptr %this.addr, align 8
  store ptr %runtime, ptr %runtime.addr, align 8
  %this1 = load ptr, ptr %this.addr, align 8
  %0 = load ptr, ptr %runtime.addr, align 8
  %vtable = load ptr, ptr %0, align 8
  %vfn = getelementptr inbounds ptr, ptr %vtable, i64 19
  %1 = load ptr, ptr %vfn, align 8
  call void %1(ptr sret(%"class.std::__cxx11::basic_string") align 8 %agg.result, ptr noundef nonnull align 8 dereferenceable(8) %0, ptr noundef nonnull align 8 dereferenceable(8) %this1)
  ret void
}

; Function Attrs: mustprogress uwtable
define internal void @_ZZN8facebook6hermes7tracing16TraceInterpreter16createHostObjectEmEN14FakeHostObject3getERNS_3jsi7RuntimeERKNS4_10PropNameIDE(ptr noalias sret(%"class.facebook::jsi::Value") align 8 %agg.result, ptr noundef nonnull align 8 dereferenceable(40) %this, ptr noundef nonnull align 8 dereferenceable(8) %rt, ptr noundef nonnull align 8 dereferenceable(8) %name) unnamed_addr #4 align 2 personality ptr @__gxx_personality_v0 {
entry:
  %result.ptr = alloca ptr, align 8
  %this.addr = alloca ptr, align 8
  %rt.addr = alloca ptr, align 8
  %name.addr = alloca ptr, align 8
  %propName = alloca %"class.std::__cxx11::basic_string", align 8
  %exn.slot = alloca ptr, align 8
  %ehselector.slot = alloca i32, align 4
  %ref.tmp = alloca %"class.facebook::jsi::Value", align 8
  %e = alloca ptr, align 8
  %agg.tmp = alloca %"class.hermes::OptValue", align 8
  store ptr %agg.result, ptr %result.ptr, align 8
  store ptr %this, ptr %this.addr, align 8
  store ptr %rt, ptr %rt.addr, align 8
  store ptr %name, ptr %name.addr, align 8
  %this1 = load ptr, ptr %this.addr, align 8
  %0 = load ptr, ptr %name.addr, align 8
  %1 = load ptr, ptr %rt.addr, align 8
  invoke void @_ZNK8facebook3jsi10PropNameID4utf8B5cxx11ERNS0_7RuntimeE(ptr sret(%"class.std::__cxx11::basic_string") align 8 %propName, ptr noundef nonnull align 8 dereferenceable(8) %0, ptr noundef nonnull align 8 dereferenceable(8) %1)
          to label %invoke.cont unwind label %lpad

invoke.cont:                                      ; preds = %entry
  %interpreter = getelementptr inbounds %struct.FakeHostObject, ptr %this1, i32 0, i32 1
  %2 = load ptr, ptr %interpreter, align 8
  %hostObjectInfo = getelementptr inbounds %struct.FakeHostObject, ptr %this1, i32 0, i32 2
  %3 = load ptr, ptr %hostObjectInfo, align 8
  %calls = getelementptr inbounds %"struct.facebook::hermes::tracing::TraceInterpreter::HostObjectInfo", ptr %3, i32 0, i32 0
  %callCount = getelementptr inbounds %struct.FakeHostObject, ptr %this1, i32 0, i32 3
  %4 = load i64, ptr %callCount, align 8
  %inc = add i64 %4, 1
  store i64 %inc, ptr %callCount, align 8
  %call = invoke noundef nonnull align 8 dereferenceable(80) ptr @_ZNKSt6vectorIN8facebook6hermes7tracing16TraceInterpreter4CallESaIS4_EE2atEm(ptr noundef nonnull align 8 dereferenceable(24) %calls, i64 noundef %4)
          to label %invoke.cont3 unwind label %lpad2

invoke.cont3:                                     ; preds = %invoke.cont
  invoke void @_ZN8facebook3jsi5Value9undefinedEv(ptr sret(%"class.facebook::jsi::Value") align 8 %ref.tmp)
          to label %invoke.cont4 unwind label %lpad2

invoke.cont4:                                     ; preds = %invoke.cont3
  %5 = load ptr, ptr %name.addr, align 8
  invoke void @_ZN8facebook6hermes7tracing16TraceInterpreter12execFunctionERKNS2_4CallERKNS_3jsi5ValueEPS8_mPKNS6_10PropNameIDE(ptr sret(%"class.facebook::jsi::Value") align 8 %agg.result, ptr noundef nonnull align 8 dereferenceable(576) %2, ptr noundef nonnull align 8 dereferenceable(80) %call, ptr noundef nonnull align 8 dereferenceable(16) %ref.tmp, ptr noundef null, i64 noundef 0, ptr noundef %5)
          to label %invoke.cont6 unwind label %lpad5

invoke.cont6:                                     ; preds = %invoke.cont4
  call void @_ZN8facebook3jsi5ValueD1Ev(ptr noundef nonnull align 8 dereferenceable(16) %ref.tmp) #3
  call void @_ZNSt7__cxx1112basic_stringIcSt11char_traitsIcESaIcEED1Ev(ptr noundef nonnull align 8 dereferenceable(32) %propName) #3
  ret void

lpad:                                             ; preds = %entry
  %6 = landingpad { ptr, i32 }
          catch ptr @_ZTISt9exception
  %7 = extractvalue { ptr, i32 } %6, 0
  store ptr %7, ptr %exn.slot, align 8
  %8 = extractvalue { ptr, i32 } %6, 1
  store i32 %8, ptr %ehselector.slot, align 4
  br label %catch.dispatch

lpad2:                                            ; preds = %invoke.cont3, %invoke.cont
  %9 = landingpad { ptr, i32 }
          cleanup
          catch ptr @_ZTISt9exception
  %10 = extractvalue { ptr, i32 } %9, 0
  store ptr %10, ptr %exn.slot, align 8
  %11 = extractvalue { ptr, i32 } %9, 1
  store i32 %11, ptr %ehselector.slot, align 4
  br label %ehcleanup

lpad5:                                            ; preds = %invoke.cont4
  %12 = landingpad { ptr, i32 }
          cleanup
          catch ptr @_ZTISt9exception
  %13 = extractvalue { ptr, i32 } %12, 0
  store ptr %13, ptr %exn.slot, align 8
  %14 = extractvalue { ptr, i32 } %12, 1
  store i32 %14, ptr %ehselector.slot, align 4
  call void @_ZN8facebook3jsi5ValueD1Ev(ptr noundef nonnull align 8 dereferenceable(16) %ref.tmp) #3
  br label %ehcleanup

ehcleanup:                                        ; preds = %lpad5, %lpad2
  call void @_ZNSt7__cxx1112basic_stringIcSt11char_traitsIcESaIcEED1Ev(ptr noundef nonnull align 8 dereferenceable(32) %propName) #3
  br label %catch.dispatch

catch.dispatch:                                   ; preds = %ehcleanup, %lpad
  %sel = load i32, ptr %ehselector.slot, align 4
  %15 = call i32 @llvm.eh.typeid.for(ptr @_ZTISt9exception) #3
  %matches = icmp eq i32 %sel, %15
  br i1 %matches, label %catch, label %eh.resume

catch:                                            ; preds = %catch.dispatch
  %exn = load ptr, ptr %exn.slot, align 8
  %16 = call ptr @__cxa_begin_catch(ptr %exn) #3
  store ptr %16, ptr %e, align 8
  %interpreter7 = getelementptr inbounds %struct.FakeHostObject, ptr %this1, i32 0, i32 1
  %17 = load ptr, ptr %interpreter7, align 8
  %18 = load ptr, ptr %e, align 8
  invoke void @_ZN6hermes8OptValueImEC2EN4llvh8NoneTypeE(ptr noundef nonnull align 8 dereferenceable(9) %agg.tmp, i32 noundef 1)
          to label %invoke.cont9 unwind label %lpad8

invoke.cont9:                                     ; preds = %catch
  %19 = getelementptr inbounds { i64, i8 }, ptr %agg.tmp, i32 0, i32 0
  %20 = load i64, ptr %19, align 8
  %21 = getelementptr inbounds { i64, i8 }, ptr %agg.tmp, i32 0, i32 1
  %22 = load i8, ptr %21, align 8
  invoke void @_ZN8facebook6hermes7tracing16TraceInterpreter16crashOnExceptionERKSt9exceptionN6hermes8OptValueImEE(ptr noundef nonnull align 8 dereferenceable(576) %17, ptr noundef nonnull align 8 dereferenceable(8) %18, i64 %20, i8 %22) #20
          to label %invoke.cont10 unwind label %lpad8

invoke.cont10:                                    ; preds = %invoke.cont9
  unreachable

lpad8:                                            ; preds = %invoke.cont9, %catch
  %23 = landingpad { ptr, i32 }
          cleanup
  %24 = extractvalue { ptr, i32 } %23, 0
  store ptr %24, ptr %exn.slot, align 8
  %25 = extractvalue { ptr, i32 } %23, 1
  store i32 %25, ptr %ehselector.slot, align 4
  invoke void @__cxa_end_catch()
          to label %invoke.cont12 unwind label %terminate.lpad

invoke.cont12:                                    ; preds = %lpad8
  br label %eh.resume

try.cont:                                         ; No predecessors!
  call void @llvm.trap()
  unreachable

eh.resume:                                        ; preds = %invoke.cont12, %catch.dispatch
  %exn13 = load ptr, ptr %exn.slot, align 8
  %sel14 = load i32, ptr %ehselector.slot, align 4
  %lpad.val = insertvalue { ptr, i32 } poison, ptr %exn13, 0
  %lpad.val15 = insertvalue { ptr, i32 } %lpad.val, i32 %sel14, 1
  resume { ptr, i32 } %lpad.val15

terminate.lpad:                                   ; preds = %lpad8
  %26 = landingpad { ptr, i32 }
          catch ptr null
  %27 = extractvalue { ptr, i32 } %26, 0
  call void @__clang_call_terminate(ptr %27) #21
  unreachable
}