; Function Attrs: mustprogress uwtable
define internal void @_ZZN8facebook6hermes7tracing16TraceInterpreter16createHostObjectEmEN14FakeHostObject3getERNS_3jsi7RuntimeERKNS4_10PropNameIDE(ptr noalias sret(%"class.facebook::jsi::Value") align 8 %agg.result, ptr nocapture noundef nonnull align 8 dereferenceable(40) %this, ptr noundef nonnull align 8 dereferenceable(8) %rt, ptr noundef nonnull align 8 dereferenceable(8) %name) unnamed_addr #3 align 2 personality ptr @__gxx_personality_v0 {
entry:
  %propName = alloca %"class.std::__cxx11::basic_string", align 8
  %ref.tmp = alloca %"class.facebook::jsi::Value", align 8
  %vtable.i = load ptr, ptr %rt, align 8, !noalias !410
  %vfn.i = getelementptr inbounds i8, ptr %vtable.i, i64 152
  %0 = load ptr, ptr %vfn.i, align 8, !noalias !410
  invoke void %0(ptr nonnull sret(%"class.std::__cxx11::basic_string") align 8 %propName, ptr noundef nonnull align 8 dereferenceable(8) %rt, ptr noundef nonnull align 8 dereferenceable(8) %name)
          to label %invoke.cont unwind label %lpad

invoke.cont:                                      ; preds = %entry
  %interpreter = getelementptr inbounds i8, ptr %this, i64 8
  %1 = load ptr, ptr %interpreter, align 8
  %hostObjectInfo = getelementptr inbounds i8, ptr %this, i64 16
  %2 = load ptr, ptr %hostObjectInfo, align 8
  %callCount = getelementptr inbounds i8, ptr %this, i64 24
  %3 = load i64, ptr %callCount, align 8
  %inc = add i64 %3, 1
  store i64 %inc, ptr %callCount, align 8
  %_M_finish.i.i.i = getelementptr inbounds i8, ptr %2, i64 8
  %4 = load ptr, ptr %_M_finish.i.i.i, align 8
  %5 = load ptr, ptr %2, align 8
  %sub.ptr.lhs.cast.i.i.i = ptrtoint ptr %4 to i64
  %sub.ptr.rhs.cast.i.i.i = ptrtoint ptr %5 to i64
  %sub.ptr.sub.i.i.i = sub i64 %sub.ptr.lhs.cast.i.i.i, %sub.ptr.rhs.cast.i.i.i
  %sub.ptr.div.i.i.i = sdiv exact i64 %sub.ptr.sub.i.i.i, 80
  %cmp.not.i.i = icmp ugt i64 %sub.ptr.div.i.i.i, %3
  br i1 %cmp.not.i.i, label %invoke.cont4, label %if.then.i.i

if.then.i.i:                                      ; preds = %invoke.cont
  invoke void (ptr, ...) @_ZSt24__throw_out_of_range_fmtPKcz(ptr noundef nonnull @.str.31, i64 noundef %3, i64 noundef %sub.ptr.div.i.i.i) #33
          to label %.noexc unwind label %lpad2

.noexc:                                           ; preds = %if.then.i.i
  unreachable

invoke.cont4:                                     ; preds = %invoke.cont
  %add.ptr.i.i = getelementptr inbounds %"struct.facebook::hermes::tracing::TraceInterpreter::Call", ptr %5, i64 %3
  store i32 0, ptr %ref.tmp, align 8, !alias.scope !413
  invoke void @_ZN8facebook6hermes7tracing16TraceInterpreter12execFunctionERKNS2_4CallERKNS_3jsi5ValueEPS8_mPKNS6_10PropNameIDE(ptr sret(%"class.facebook::jsi::Value") align 8 %agg.result, ptr noundef nonnull align 8 dereferenceable(576) %1, ptr noundef nonnull align 8 dereferenceable(80) %add.ptr.i.i, ptr noundef nonnull align 8 dereferenceable(16) %ref.tmp, ptr noundef null, i64 poison, ptr noundef nonnull %name)
          to label %invoke.cont6 unwind label %lpad5

invoke.cont6:                                     ; preds = %invoke.cont4
  call void @_ZN8facebook3jsi5ValueD1Ev(ptr noundef nonnull align 8 dereferenceable(16) %ref.tmp) #29
  call void @_ZNSt7__cxx1112basic_stringIcSt11char_traitsIcESaIcEED1Ev(ptr noundef nonnull align 8 dereferenceable(32) %propName) #29
  ret void

lpad:                                             ; preds = %entry
  %6 = landingpad { ptr, i32 }
          catch ptr @_ZTISt9exception
  br label %catch.dispatch

lpad2:                                            ; preds = %if.then.i.i
  %7 = landingpad { ptr, i32 }
          cleanup
          catch ptr @_ZTISt9exception
  br label %ehcleanup

lpad5:                                            ; preds = %invoke.cont4
  %8 = landingpad { ptr, i32 }
          cleanup
          catch ptr @_ZTISt9exception
  call void @_ZN8facebook3jsi5ValueD1Ev(ptr noundef nonnull align 8 dereferenceable(16) %ref.tmp) #29
  br label %ehcleanup

ehcleanup:                                        ; preds = %lpad5, %lpad2
  %.pn = phi { ptr, i32 } [ %8, %lpad5 ], [ %7, %lpad2 ]
  call void @_ZNSt7__cxx1112basic_stringIcSt11char_traitsIcESaIcEED1Ev(ptr noundef nonnull align 8 dereferenceable(32) %propName) #29
  br label %catch.dispatch

catch.dispatch:                                   ; preds = %ehcleanup, %lpad
  %.pn.pn = phi { ptr, i32 } [ %.pn, %ehcleanup ], [ %6, %lpad ]
  %ehselector.slot.1 = extractvalue { ptr, i32 } %.pn.pn, 1
  %9 = call i32 @llvm.eh.typeid.for(ptr nonnull @_ZTISt9exception) #29
  %matches = icmp eq i32 %ehselector.slot.1, %9
  br i1 %matches, label %catch, label %eh.resume

catch:                                            ; preds = %catch.dispatch
  %exn.slot.1 = extractvalue { ptr, i32 } %.pn.pn, 0
  %10 = call ptr @__cxa_begin_catch(ptr %exn.slot.1) #29
  %interpreter7 = getelementptr inbounds i8, ptr %this, i64 8
  %11 = load ptr, ptr %interpreter7, align 8
  invoke void @_ZN8facebook6hermes7tracing16TraceInterpreter16crashOnExceptionERKSt9exceptionN6hermes8OptValueImEE(ptr noundef nonnull align 8 dereferenceable(576) %11, ptr noundef nonnull align 8 dereferenceable(8) %10, i64 0, i8 0) #33
          to label %invoke.cont10 unwind label %lpad8

invoke.cont10:                                    ; preds = %catch
  unreachable

lpad8:                                            ; preds = %catch
  %12 = landingpad { ptr, i32 }
          cleanup
  invoke void @__cxa_end_catch()
          to label %eh.resume unwind label %terminate.lpad

eh.resume:                                        ; preds = %lpad8, %catch.dispatch
  %lpad.val15.merged = phi { ptr, i32 } [ %12, %lpad8 ], [ %.pn.pn, %catch.dispatch ]
  resume { ptr, i32 } %lpad.val15.merged

terminate.lpad:                                   ; preds = %lpad8
  %13 = landingpad { ptr, i32 }
          catch ptr null
  %14 = extractvalue { ptr, i32 } %13, 0
  call void @__clang_call_terminate(ptr %14) #30
  unreachable
}